; Function Attrs: nounwind uwtable
define internal void @_image_cache_deallocate(ptr readnone captures(none) %0, ptr noundef readonly captures(none) %1) #0 {
  %3 = load ptr, ptr %1, align 8, !tbaa !56
  %4 = getelementptr inbounds nuw i8, ptr %3, i64 1656
  %5 = load ptr, ptr %4, align 8, !tbaa !96
  tail call void @g_free(ptr noundef %5) #8
  %6 = getelementptr inbounds nuw i8, ptr %3, i64 1824
  %7 = load ptr, ptr %6, align 16, !tbaa !114
  tail call void @g_list_free_full(ptr noundef %7, ptr noundef nonnull @g_free) #8
  tail call void @g_free(ptr noundef %3) #8
  ret void
}